target datalayout = "e-m:e-p270:32:32-p271:32:32-p272:64:64-i64:64-i128:128-f80:128-n8:16:32:64-S128"
target triple = "x86_64-pc-linux-gnu"

%"class.std::__cxx11::basic_string" = type { %"struct.std::__cxx11::basic_string<char>::_Alloc_hider", i64, %union.anon.10 }
%"struct.std::__cxx11::basic_string<char>::_Alloc_hider" = type { ptr }
%union.anon.10 = type { i64, [8 x i8] }
%struct.EnumContext = type { %"class.Luau::DenseHashMap.673", %"class.Luau::DenseHashMap.678" }
%"class.Luau::DenseHashMap.673" = type { %"class.Luau::detail::DenseHashTable.674" }
%"class.Luau::detail::DenseHashTable.674" = type <{ ptr, i64, i64, ptr, %"struct.Luau::DenseHashPointer", %"struct.std::equal_to.675", [6 x i8] }>
%"struct.Luau::DenseHashPointer" = type { i8 }
%"struct.std::equal_to.675" = type { i8 }
%"class.Luau::DenseHashMap.678" = type { %"class.Luau::detail::DenseHashTable.679" }
%"class.Luau::detail::DenseHashTable.679" = type <{ ptr, i64, i64, ptr, %"struct.Luau::DenseHashPointer", %"struct.std::equal_to.675", [6 x i8] }>
%"struct.std::pair.685" = type { ptr, %struct.Node }
%struct.Node = type { ptr, i8, i8, i64, %"class.std::__cxx11::basic_string" }

; Function Attrs: mustprogress nounwind uwtable
define internal void @_ZZL21DOCTEST_ANON_FUNC_116vEN4NodeD2Ev(ptr noundef nonnull align 8 dereferenceable(56) %0) unnamed_addr #1 align 2 {
  %2 = alloca ptr, align 8
  store ptr %0, ptr %2, align 8
  %3 = load ptr, ptr %2, align 8
  %4 = getelementptr inbounds %struct.Node, ptr %3, i32 0, i32 4
  call void @_ZNSt7__cxx1112basic_stringIcSt11char_traitsIcESaIcEED1Ev(ptr noundef nonnull align 8 dereferenceable(32) %4) #16
  ret void
}

; Function Attrs: mustprogress nounwind uwtable
define internal void @_ZN4Luau6detail16ItemInterfaceMapIPvZL21DOCTEST_ANON_FUNC_116vE4NodeE7destroyEPSt4pairIS2_S3_Em(ptr noundef %0, i64 noundef %1) #1 align 2 {
  %3 = alloca ptr, align 8
  %4 = alloca i64, align 8
  %5 = alloca i64, align 8
  store ptr %0, ptr %3, align 8
  store i64 %1, ptr %4, align 8
  store i64 0, ptr %5, align 8
  br label %6

6:                                                ; preds = %15, %2
  %7 = load i64, ptr %5, align 8
  %8 = load i64, ptr %4, align 8
  %9 = icmp ult i64 %7, %8
  br i1 %9, label %10, label %18

10:                                               ; preds = %6
  %11 = load ptr, ptr %3, align 8
  %12 = load i64, ptr %5, align 8
  %13 = getelementptr inbounds %"struct.std::pair.685", ptr %11, i64 %12
  %14 = getelementptr inbounds %"struct.std::pair.685", ptr %13, i32 0, i32 1
  call void @_ZZL21DOCTEST_ANON_FUNC_116vEN4NodeD2Ev(ptr noundef nonnull align 8 dereferenceable(56) %14) #16
  br label %15

15:                                               ; preds = %10
  %16 = load i64, ptr %5, align 8
  %17 = add i64 %16, 1
  store i64 %17, ptr %5, align 8
  br label %6, !llvm.loop !246

18:                                               ; preds = %6
  ret void
}

; Function Attrs: mustprogress nounwind uwtable
define linkonce_odr dso_local void @_ZN4Luau6detail16ItemInterfaceMapIPvS2_E7destroyEPSt4pairIS2_S2_Em(ptr noundef %0, i64 noundef %1) #1 comdat align 2 {
  %3 = alloca ptr, align 8
  %4 = alloca i64, align 8
  %5 = alloca i64, align 8
  store ptr %0, ptr %3, align 8
  store i64 %1, ptr %4, align 8
  store i64 0, ptr %5, align 8
  br label %6

6:                                                ; preds = %11, %2
  %7 = load i64, ptr %5, align 8
  %8 = load i64, ptr %4, align 8
  %9 = icmp ult i64 %7, %8
  br i1 %9, label %10, label %14

10:                                               ; preds = %6
  br label %11

11:                                               ; preds = %10
  %12 = load i64, ptr %5, align 8
  %13 = add i64 %12, 1
  store i64 %13, ptr %5, align 8
  br label %6, !llvm.loop !254

14:                                               ; preds = %6
  ret void
}

; Function Attrs: mustprogress uwtable
define internal void @_ZN4Luau6detail14DenseHashTableIPvSt4pairIS2_ZL21DOCTEST_ANON_FUNC_116vE4NodeES3_IKS2_S4_ENS0_16ItemInterfaceMapIS2_S4_EENS_16DenseHashPointerESt8equal_toIS2_EE7destroyEv(ptr noundef nonnull align 8 dereferenceable(34) %0) #4 align 2 {
  %2 = alloca ptr, align 8
  store ptr %0, ptr %2, align 8
  %3 = load ptr, ptr %2, align 8
  %4 = getelementptr inbounds %"class.Luau::detail::DenseHashTable.674", ptr %3, i32 0, i32 0
  %5 = load ptr, ptr %4, align 8
  %6 = getelementptr inbounds %"class.Luau::detail::DenseHashTable.674", ptr %3, i32 0, i32 1
  %7 = load i64, ptr %6, align 8
  call void @_ZN4Luau6detail16ItemInterfaceMapIPvZL21DOCTEST_ANON_FUNC_116vE4NodeE7destroyEPSt4pairIS2_S3_Em(ptr noundef %5, i64 noundef %7)
  %8 = getelementptr inbounds %"class.Luau::detail::DenseHashTable.674", ptr %3, i32 0, i32 0
  %9 = load ptr, ptr %8, align 8
  call void @_ZdlPv(ptr noundef %9) #16
  %10 = getelementptr inbounds %"class.Luau::detail::DenseHashTable.674", ptr %3, i32 0, i32 0
  store ptr null, ptr %10, align 8
  %11 = getelementptr inbounds %"class.Luau::detail::DenseHashTable.674", ptr %3, i32 0, i32 1
  store i64 0, ptr %11, align 8
  ret void
}

; Function Attrs: noreturn nounwind uwtable
define linkonce_odr hidden void @__clang_call_terminate(ptr noundef %0) #9 comdat {
  %2 = call ptr @__cxa_begin_catch(ptr %0) #16
  call void @_ZSt9terminatev() #20
  unreachable
}

; Function Attrs: mustprogress uwtable
define linkonce_odr dso_local void @_ZN4Luau6detail14DenseHashTableIPvSt4pairIS2_S2_ES3_IKS2_S2_ENS0_16ItemInterfaceMapIS2_S2_EENS_16DenseHashPointerESt8equal_toIS2_EE7destroyEv(ptr noundef nonnull align 8 dereferenceable(34) %0) #4 comdat align 2 {
  %2 = alloca ptr, align 8
  store ptr %0, ptr %2, align 8
  %3 = load ptr, ptr %2, align 8
  %4 = getelementptr inbounds %"class.Luau::detail::DenseHashTable.679", ptr %3, i32 0, i32 0
  %5 = load ptr, ptr %4, align 8
  %6 = getelementptr inbounds %"class.Luau::detail::DenseHashTable.679", ptr %3, i32 0, i32 1
  %7 = load i64, ptr %6, align 8
  call void @_ZN4Luau6detail16ItemInterfaceMapIPvS2_E7destroyEPSt4pairIS2_S2_Em(ptr noundef %5, i64 noundef %7)
  %8 = getelementptr inbounds %"class.Luau::detail::DenseHashTable.679", ptr %3, i32 0, i32 0
  %9 = load ptr, ptr %8, align 8
  call void @_ZdlPv(ptr noundef %9) #16
  %10 = getelementptr inbounds %"class.Luau::detail::DenseHashTable.679", ptr %3, i32 0, i32 0
  store ptr null, ptr %10, align 8
  %11 = getelementptr inbounds %"class.Luau::detail::DenseHashTable.679", ptr %3, i32 0, i32 1
  store i64 0, ptr %11, align 8
  ret void
}

; Function Attrs: mustprogress nounwind uwtable
define internal void @_ZN4Luau6detail14DenseHashTableIPvSt4pairIS2_ZL21DOCTEST_ANON_FUNC_116vE4NodeES3_IKS2_S4_ENS0_16ItemInterfaceMapIS2_S4_EENS_16DenseHashPointerESt8equal_toIS2_EED2Ev(ptr noundef nonnull align 8 dereferenceable(34) %0) unnamed_addr #1 align 2 personality ptr @__gxx_personality_v0 {
  %2 = alloca ptr, align 8
  store ptr %0, ptr %2, align 8
  %3 = load ptr, ptr %2, align 8
  %4 = getelementptr inbounds %"class.Luau::detail::DenseHashTable.674", ptr %3, i32 0, i32 0
  %5 = load ptr, ptr %4, align 8
  %6 = icmp ne ptr %5, null
  br i1 %6, label %7, label %9

7:                                                ; preds = %1
  invoke void @_ZN4Luau6detail14DenseHashTableIPvSt4pairIS2_ZL21DOCTEST_ANON_FUNC_116vE4NodeES3_IKS2_S4_ENS0_16ItemInterfaceMapIS2_S4_EENS_16DenseHashPointerESt8equal_toIS2_EE7destroyEv(ptr noundef nonnull align 8 dereferenceable(34) %3)
          to label %8 unwind label %10

8:                                                ; preds = %7
  br label %9

9:                                                ; preds = %8, %1
  ret void

10:                                               ; preds = %7
  %11 = landingpad { ptr, i32 }
          catch ptr null
  %12 = extractvalue { ptr, i32 } %11, 0
  call void @__clang_call_terminate(ptr %12) #20
  unreachable
}

; Function Attrs: mustprogress nounwind uwtable
define linkonce_odr dso_local void @_ZN4Luau6detail14DenseHashTableIPvSt4pairIS2_S2_ES3_IKS2_S2_ENS0_16ItemInterfaceMapIS2_S2_EENS_16DenseHashPointerESt8equal_toIS2_EED2Ev(ptr noundef nonnull align 8 dereferenceable(34) %0) unnamed_addr #1 comdat align 2 personality ptr @__gxx_personality_v0 {
  %2 = alloca ptr, align 8
  store ptr %0, ptr %2, align 8
  %3 = load ptr, ptr %2, align 8
  %4 = getelementptr inbounds %"class.Luau::detail::DenseHashTable.679", ptr %3, i32 0, i32 0
  %5 = load ptr, ptr %4, align 8
  %6 = icmp ne ptr %5, null
  br i1 %6, label %7, label %9

7:                                                ; preds = %1
  invoke void @_ZN4Luau6detail14DenseHashTableIPvSt4pairIS2_S2_ES3_IKS2_S2_ENS0_16ItemInterfaceMapIS2_S2_EENS_16DenseHashPointerESt8equal_toIS2_EE7destroyEv(ptr noundef nonnull align 8 dereferenceable(34) %3)
          to label %8 unwind label %10

8:                                                ; preds = %7
  br label %9

9:                                                ; preds = %8, %1
  ret void

10:                                               ; preds = %7
  %11 = landingpad { ptr, i32 }
          catch ptr null
  %12 = extractvalue { ptr, i32 } %11, 0
  call void @__clang_call_terminate(ptr %12) #20
  unreachable
}

; Function Attrs: mustprogress nounwind uwtable
define internal void @_ZN4Luau12DenseHashMapIPvZL21DOCTEST_ANON_FUNC_116vE4NodeNS_16DenseHashPointerESt8equal_toIS1_EED2Ev(ptr noundef nonnull align 8 dereferenceable(40) %0) unnamed_addr #1 align 2 {
  %2 = alloca ptr, align 8
  store ptr %0, ptr %2, align 8
  %3 = load ptr, ptr %2, align 8
  %4 = getelementptr inbounds %"class.Luau::DenseHashMap.673", ptr %3, i32 0, i32 0
  call void @_ZN4Luau6detail14DenseHashTableIPvSt4pairIS2_ZL21DOCTEST_ANON_FUNC_116vE4NodeES3_IKS2_S4_ENS0_16ItemInterfaceMapIS2_S4_EENS_16DenseHashPointerESt8equal_toIS2_EED2Ev(ptr noundef nonnull align 8 dereferenceable(34) %4) #16
  ret void
}

; Function Attrs: mustprogress nounwind uwtable
define linkonce_odr dso_local void @_ZN4Luau12DenseHashMapIPvS1_NS_16DenseHashPointerESt8equal_toIS1_EED2Ev(ptr noundef nonnull align 8 dereferenceable(40) %0) unnamed_addr #1 comdat align 2 {
  %2 = alloca ptr, align 8
  store ptr %0, ptr %2, align 8
  %3 = load ptr, ptr %2, align 8
  %4 = getelementptr inbounds %"class.Luau::DenseHashMap.678", ptr %3, i32 0, i32 0
  call void @_ZN4Luau6detail14DenseHashTableIPvSt4pairIS2_S2_ES3_IKS2_S2_ENS0_16ItemInterfaceMapIS2_S2_EENS_16DenseHashPointerESt8equal_toIS2_EED2Ev(ptr noundef nonnull align 8 dereferenceable(34) %4) #16
  ret void
}

; Function Attrs: mustprogress nounwind uwtable
define internal void @_ZZL21DOCTEST_ANON_FUNC_116vEN11EnumContextD2Ev(ptr noundef nonnull align 8 dereferenceable(80) %0) unnamed_addr #1 align 2 {
  %2 = alloca ptr, align 8
  store ptr %0, ptr %2, align 8
  %3 = load ptr, ptr %2, align 8
  %4 = getelementptr inbounds %struct.EnumContext, ptr %3, i32 0, i32 1
  call void @_ZN4Luau12DenseHashMapIPvS1_NS_16DenseHashPointerESt8equal_toIS1_EED2Ev(ptr noundef nonnull align 8 dereferenceable(40) %4) #16
  %5 = getelementptr inbounds %struct.EnumContext, ptr %3, i32 0, i32 0
  call void @_ZN4Luau12DenseHashMapIPvZL21DOCTEST_ANON_FUNC_116vE4NodeNS_16DenseHashPointerESt8equal_toIS1_EED2Ev(ptr noundef nonnull align 8 dereferenceable(40) %5) #16
  ret void
}