; Function Attrs: mustprogress nounwind uwtable
define internal fastcc void @_ZZL21DOCTEST_ANON_FUNC_116vEN11EnumContextD2Ev(ptr nocapture noundef nonnull align 8 dereferenceable(80) %0) unnamed_addr #7 align 2 personality ptr @__gxx_personality_v0 {
  %2 = getelementptr inbounds i8, ptr %0, i64 40
  %3 = load ptr, ptr %2, align 8
  %.not.i.i = icmp eq ptr %3, null
  br i1 %.not.i.i, label %_ZN4Luau12DenseHashMapIPvS1_NS_16DenseHashPointerESt8equal_toIS1_EED2Ev.exit, label %4

4:                                                ; preds = %1
  tail call void @_ZdlPv(ptr noundef nonnull %3) #35
  tail call void @llvm.memset.p0.i64(ptr noundef nonnull align 8 dereferenceable(16) %2, i8 0, i64 16, i1 false)
  br label %_ZN4Luau12DenseHashMapIPvS1_NS_16DenseHashPointerESt8equal_toIS1_EED2Ev.exit

_ZN4Luau12DenseHashMapIPvS1_NS_16DenseHashPointerESt8equal_toIS1_EED2Ev.exit: ; preds = %1, %4
  %5 = load ptr, ptr %0, align 8
  %.not.i.i1 = icmp eq ptr %5, null
  br i1 %.not.i.i1, label %_ZN4Luau12DenseHashMapIPvZL21DOCTEST_ANON_FUNC_116vE4NodeNS_16DenseHashPointerESt8equal_toIS1_EED2Ev.exit, label %6

6:                                                ; preds = %_ZN4Luau12DenseHashMapIPvS1_NS_16DenseHashPointerESt8equal_toIS1_EED2Ev.exit
  %7 = getelementptr inbounds i8, ptr %0, i64 8
  %8 = load i64, ptr %7, align 8
  %.not.i.i.i.i = icmp eq i64 %8, 0
  br i1 %.not.i.i.i.i, label %_ZN4Luau6detail14DenseHashTableIPvSt4pairIS2_ZL21DOCTEST_ANON_FUNC_116vE4NodeES3_IKS2_S4_ENS0_16ItemInterfaceMapIS2_S4_EENS_16DenseHashPointerESt8equal_toIS2_EE7destroyEv.exit.i.i, label %.lr.ph.i.i.i.i

.lr.ph.i.i.i.i:                                   ; preds = %6, %.lr.ph.i.i.i.i
  %.04.i.i.i.i = phi i64 [ %10, %.lr.ph.i.i.i.i ], [ 0, %6 ]
  %9 = getelementptr inbounds %"struct.std::pair.685", ptr %5, i64 %.04.i.i.i.i, i32 1, i32 4
  tail call void @_ZNSt7__cxx1112basic_stringIcSt11char_traitsIcESaIcEED1Ev(ptr noundef nonnull align 8 dereferenceable(32) %9) #35
  %10 = add nuw i64 %.04.i.i.i.i, 1
  %exitcond.not.i.i.i.i = icmp eq i64 %10, %8
  br i1 %exitcond.not.i.i.i.i, label %_ZN4Luau6detail16ItemInterfaceMapIPvZL21DOCTEST_ANON_FUNC_116vE4NodeE7destroyEPSt4pairIS2_S3_Em.exit.loopexit.i.i.i, label %.lr.ph.i.i.i.i, !llvm.loop !119

_ZN4Luau6detail16ItemInterfaceMapIPvZL21DOCTEST_ANON_FUNC_116vE4NodeE7destroyEPSt4pairIS2_S3_Em.exit.loopexit.i.i.i: ; preds = %.lr.ph.i.i.i.i
  %.pre.i.i.i = load ptr, ptr %0, align 8
  br label %_ZN4Luau6detail14DenseHashTableIPvSt4pairIS2_ZL21DOCTEST_ANON_FUNC_116vE4NodeES3_IKS2_S4_ENS0_16ItemInterfaceMapIS2_S4_EENS_16DenseHashPointerESt8equal_toIS2_EE7destroyEv.exit.i.i

_ZN4Luau6detail14DenseHashTableIPvSt4pairIS2_ZL21DOCTEST_ANON_FUNC_116vE4NodeES3_IKS2_S4_ENS0_16ItemInterfaceMapIS2_S4_EENS_16DenseHashPointerESt8equal_toIS2_EE7destroyEv.exit.i.i: ; preds = %_ZN4Luau6detail16ItemInterfaceMapIPvZL21DOCTEST_ANON_FUNC_116vE4NodeE7destroyEPSt4pairIS2_S3_Em.exit.loopexit.i.i.i, %6
  %11 = phi ptr [ %.pre.i.i.i, %_ZN4Luau6detail16ItemInterfaceMapIPvZL21DOCTEST_ANON_FUNC_116vE4NodeE7destroyEPSt4pairIS2_S3_Em.exit.loopexit.i.i.i ], [ %5, %6 ]
  tail call void @_ZdlPv(ptr noundef %11) #35
  tail call void @llvm.memset.p0.i64(ptr noundef nonnull align 8 dereferenceable(16) %0, i8 0, i64 16, i1 false)
  br label %_ZN4Luau12DenseHashMapIPvZL21DOCTEST_ANON_FUNC_116vE4NodeNS_16DenseHashPointerESt8equal_toIS1_EED2Ev.exit

_ZN4Luau12DenseHashMapIPvZL21DOCTEST_ANON_FUNC_116vE4NodeNS_16DenseHashPointerESt8equal_toIS1_EED2Ev.exit: ; preds = %_ZN4Luau12DenseHashMapIPvS1_NS_16DenseHashPointerESt8equal_toIS1_EED2Ev.exit, %_ZN4Luau6detail14DenseHashTableIPvSt4pairIS2_ZL21DOCTEST_ANON_FUNC_116vE4NodeES3_IKS2_S4_ENS0_16ItemInterfaceMapIS2_S4_EENS_16DenseHashPointerESt8equal_toIS2_EE7destroyEv.exit.i.i
  ret void
}